target datalayout = "e-m:e-p270:32:32-p271:32:32-p272:64:64-i64:64-i128:128-f80:128-n8:16:32:64-S128"
target triple = "x86_64-pc-linux-gnu"

%"class.gmx::BasicVector" = type { [3 x float] }

; Function Attrs: mustprogress nounwind uwtable
define linkonce_odr noundef float @_ZNK3gmx11BasicVectorIfEixEi(ptr noundef nonnull align 4 dereferenceable(12) %0, i32 noundef %1) #2 comdat align 2 {
  %3 = alloca ptr, align 8
  %4 = alloca i32, align 4
  store ptr %0, ptr %3, align 8, !tbaa !96
  store i32 %1, ptr %4, align 4, !tbaa !192
  %5 = load ptr, ptr %3, align 8
  %6 = getelementptr inbounds nuw %"class.gmx::BasicVector", ptr %5, i32 0, i32 0
  %7 = load i32, ptr %4, align 4, !tbaa !192
  %8 = sext i32 %7 to i64
  %9 = getelementptr inbounds [3 x float], ptr %6, i64 0, i64 %8
  %10 = load float, ptr %9, align 4, !tbaa !97
  ret float %10
}

; Function Attrs: inlinehint mustprogress nounwind uwtable
define linkonce_odr noundef float @_ZSt4sqrtf(float noundef %0) #10 comdat {
  %2 = alloca float, align 4
  store float %0, ptr %2, align 4, !tbaa !97
  %3 = load float, ptr %2, align 4, !tbaa !97
  %4 = call float @sqrtf(float noundef %3) #4, !tbaa !192
  ret float %4
}

; Function Attrs: mustprogress uwtable
define linkonce_odr noundef float @_ZNK3gmx11BasicVectorIfE5norm2Ev(ptr noundef nonnull align 4 dereferenceable(12) %0) #3 comdat align 2 {
  %2 = alloca ptr, align 8
  store ptr %0, ptr %2, align 8, !tbaa !96
  %3 = load ptr, ptr %2, align 8
  %4 = call noundef float @_ZNK3gmx11BasicVectorIfE3dotERKS1_(ptr noundef nonnull align 4 dereferenceable(12) %3, ptr noundef nonnull align 4 dereferenceable(12) %3)
  ret float %4
}

; Function Attrs: mustprogress nounwind uwtable
define linkonce_odr noundef nonnull align 4 dereferenceable(12) ptr @_ZN3gmx11BasicVectorIfEmLERKf(ptr noundef nonnull align 4 dereferenceable(12) %0, ptr noundef nonnull align 4 dereferenceable(4) %1) #2 comdat align 2 {
  %3 = alloca ptr, align 8
  %4 = alloca ptr, align 8
  store ptr %0, ptr %3, align 8, !tbaa !96
  store ptr %1, ptr %4, align 8, !tbaa !73
  %5 = load ptr, ptr %3, align 8
  %6 = load ptr, ptr %4, align 8, !tbaa !73
  %7 = load float, ptr %6, align 4, !tbaa !97
  %8 = getelementptr inbounds nuw %"class.gmx::BasicVector", ptr %5, i32 0, i32 0
  %9 = getelementptr inbounds [3 x float], ptr %8, i64 0, i64 0
  %10 = load float, ptr %9, align 4, !tbaa !97
  %11 = fmul float %10, %7
  store float %11, ptr %9, align 4, !tbaa !97
  %12 = load ptr, ptr %4, align 8, !tbaa !73
  %13 = load float, ptr %12, align 4, !tbaa !97
  %14 = getelementptr inbounds nuw %"class.gmx::BasicVector", ptr %5, i32 0, i32 0
  %15 = getelementptr inbounds [3 x float], ptr %14, i64 0, i64 1
  %16 = load float, ptr %15, align 4, !tbaa !97
  %17 = fmul float %16, %13
  store float %17, ptr %15, align 4, !tbaa !97
  %18 = load ptr, ptr %4, align 8, !tbaa !73
  %19 = load float, ptr %18, align 4, !tbaa !97
  %20 = getelementptr inbounds nuw %"class.gmx::BasicVector", ptr %5, i32 0, i32 0
  %21 = getelementptr inbounds [3 x float], ptr %20, i64 0, i64 2
  %22 = load float, ptr %21, align 4, !tbaa !97
  %23 = fmul float %22, %19
  store float %23, ptr %21, align 4, !tbaa !97
  ret ptr %5
}

; Function Attrs: mustprogress uwtable
define linkonce_odr { <2 x float>, float } @_ZN3gmxmlIfEENS_11BasicVectorIT_EERKS2_RKS3_(ptr noundef nonnull align 4 dereferenceable(4) %0, ptr noundef nonnull align 4 dereferenceable(12) %1) #3 comdat {
  %3 = alloca %"class.gmx::BasicVector", align 4
  %4 = alloca ptr, align 8
  %5 = alloca ptr, align 8
  %6 = alloca { <2 x float>, float }, align 8
  store ptr %0, ptr %4, align 8, !tbaa !73
  store ptr %1, ptr %5, align 8, !tbaa !96
  %7 = load ptr, ptr %4, align 8, !tbaa !73
  %8 = load float, ptr %7, align 4, !tbaa !97
  %9 = load ptr, ptr %5, align 8, !tbaa !96
  %10 = call noundef float @_ZNK3gmx11BasicVectorIfEixEi(ptr noundef nonnull align 4 dereferenceable(12) %9, i32 noundef 0)
  %11 = fmul float %8, %10
  %12 = load ptr, ptr %4, align 8, !tbaa !73
  %13 = load float, ptr %12, align 4, !tbaa !97
  %14 = load ptr, ptr %5, align 8, !tbaa !96
  %15 = call noundef float @_ZNK3gmx11BasicVectorIfEixEi(ptr noundef nonnull align 4 dereferenceable(12) %14, i32 noundef 1)
  %16 = fmul float %13, %15
  %17 = load ptr, ptr %4, align 8, !tbaa !73
  %18 = load float, ptr %17, align 4, !tbaa !97
  %19 = load ptr, ptr %5, align 8, !tbaa !96
  %20 = call noundef float @_ZNK3gmx11BasicVectorIfEixEi(ptr noundef nonnull align 4 dereferenceable(12) %19, i32 noundef 2)
  %21 = fmul float %18, %20
  call void @_ZN3gmx11BasicVectorIfEC2Efff(ptr noundef nonnull align 4 dereferenceable(12) %3, float noundef %11, float noundef %16, float noundef %21)
  %22 = getelementptr inbounds nuw %"class.gmx::BasicVector", ptr %3, i32 0, i32 0
  call void @llvm.memcpy.p0.p0.i64(ptr align 8 %6, ptr align 4 %22, i64 12, i1 false)
  %23 = load { <2 x float>, float }, ptr %6, align 8
  ret { <2 x float>, float } %23
}

; Function Attrs: inlinehint mustprogress nounwind uwtable
define linkonce_odr noundef float @_ZSt4fabsf(float noundef %0) #10 comdat {
  %2 = alloca float, align 4
  store float %0, ptr %2, align 4, !tbaa !97
  %3 = load float, ptr %2, align 4, !tbaa !97
  %4 = call float @llvm.fabs.f32(float %3)
  ret float %4
}

; Function Attrs: mustprogress nounwind uwtable
define linkonce_odr noundef float @_ZNK3gmx11BasicVectorIfE3dotERKS1_(ptr noundef nonnull align 4 dereferenceable(12) %0, ptr noundef nonnull align 4 dereferenceable(12) %1) #2 comdat align 2 {
  %3 = alloca ptr, align 8
  %4 = alloca ptr, align 8
  store ptr %0, ptr %3, align 8, !tbaa !96
  store ptr %1, ptr %4, align 8, !tbaa !96
  %5 = load ptr, ptr %3, align 8
  %6 = getelementptr inbounds nuw %"class.gmx::BasicVector", ptr %5, i32 0, i32 0
  %7 = getelementptr inbounds [3 x float], ptr %6, i64 0, i64 0
  %8 = load float, ptr %7, align 4, !tbaa !97
  %9 = load ptr, ptr %4, align 8, !tbaa !96
  %10 = call noundef float @_ZNK3gmx11BasicVectorIfEixEi(ptr noundef nonnull align 4 dereferenceable(12) %9, i32 noundef 0)
  %11 = getelementptr inbounds nuw %"class.gmx::BasicVector", ptr %5, i32 0, i32 0
  %12 = getelementptr inbounds [3 x float], ptr %11, i64 0, i64 1
  %13 = load float, ptr %12, align 4, !tbaa !97
  %14 = load ptr, ptr %4, align 8, !tbaa !96
  %15 = call noundef float @_ZNK3gmx11BasicVectorIfEixEi(ptr noundef nonnull align 4 dereferenceable(12) %14, i32 noundef 1)
  %16 = fmul float %13, %15
  %17 = call float @llvm.fmuladd.f32(float %8, float %10, float %16)
  %18 = getelementptr inbounds nuw %"class.gmx::BasicVector", ptr %5, i32 0, i32 0
  %19 = getelementptr inbounds [3 x float], ptr %18, i64 0, i64 2
  %20 = load float, ptr %19, align 4, !tbaa !97
  %21 = load ptr, ptr %4, align 8, !tbaa !96
  %22 = call noundef float @_ZNK3gmx11BasicVectorIfEixEi(ptr noundef nonnull align 4 dereferenceable(12) %21, i32 noundef 2)
  %23 = call float @llvm.fmuladd.f32(float %20, float %22, float %17)
  ret float %23
}

; Function Attrs: mustprogress uwtable
define linkonce_odr noundef nonnull align 4 dereferenceable(12) ptr @_ZN3gmx11BasicVectorIfEdVERKf(ptr noundef nonnull align 4 dereferenceable(12) %0, ptr noundef nonnull align 4 dereferenceable(4) %1) #3 comdat align 2 {
  %3 = alloca ptr, align 8
  %4 = alloca ptr, align 8
  %5 = alloca float, align 4
  store ptr %0, ptr %3, align 8, !tbaa !96
  store ptr %1, ptr %4, align 8, !tbaa !73
  %6 = load ptr, ptr %3, align 8
  call void @llvm.lifetime.start.p0(i64 4, ptr %5) #4
  %7 = load ptr, ptr %4, align 8, !tbaa !73
  %8 = load float, ptr %7, align 4, !tbaa !97
  %9 = fdiv float 1.000000e+00, %8
  store float %9, ptr %5, align 4, !tbaa !97
  %10 = call noundef nonnull align 4 dereferenceable(12) ptr @_ZN3gmx11BasicVectorIfEmLERKf(ptr noundef nonnull align 4 dereferenceable(12) %6, ptr noundef nonnull align 4 dereferenceable(4) %5)
  call void @llvm.lifetime.end.p0(i64 4, ptr %5) #4
  ret ptr %10
}

; Function Attrs: mustprogress uwtable
define linkonce_odr noundef float @_ZNK3gmx11BasicVectorIfE4normEv(ptr noundef nonnull align 4 dereferenceable(12) %0) #3 comdat align 2 {
  %2 = alloca ptr, align 8
  store ptr %0, ptr %2, align 8, !tbaa !96
  %3 = load ptr, ptr %2, align 8
  %4 = call noundef float @_ZNK3gmx11BasicVectorIfE5norm2Ev(ptr noundef nonnull align 4 dereferenceable(12) %3)
  %5 = call noundef float @_ZSt4sqrtf(float noundef %4)
  ret float %5
}

; Function Attrs: mustprogress uwtable
define linkonce_odr { <2 x float>, float } @_ZNK3gmx11BasicVectorIfE5crossERKS1_(ptr noundef nonnull align 4 dereferenceable(12) %0, ptr noundef nonnull align 4 dereferenceable(12) %1) #3 comdat align 2 {
  %3 = alloca %"class.gmx::BasicVector", align 4
  %4 = alloca ptr, align 8
  %5 = alloca ptr, align 8
  %6 = alloca { <2 x float>, float }, align 8
  store ptr %0, ptr %4, align 8, !tbaa !96
  store ptr %1, ptr %5, align 8, !tbaa !96
  %7 = load ptr, ptr %4, align 8
  %8 = getelementptr inbounds nuw %"class.gmx::BasicVector", ptr %7, i32 0, i32 0
  %9 = getelementptr inbounds [3 x float], ptr %8, i64 0, i64 1
  %10 = load float, ptr %9, align 4, !tbaa !97
  %11 = load ptr, ptr %5, align 8, !tbaa !96
  %12 = getelementptr inbounds nuw %"class.gmx::BasicVector", ptr %11, i32 0, i32 0
  %13 = getelementptr inbounds [3 x float], ptr %12, i64 0, i64 2
  %14 = load float, ptr %13, align 4, !tbaa !97
  %15 = getelementptr inbounds nuw %"class.gmx::BasicVector", ptr %7, i32 0, i32 0
  %16 = getelementptr inbounds [3 x float], ptr %15, i64 0, i64 2
  %17 = load float, ptr %16, align 4, !tbaa !97
  %18 = load ptr, ptr %5, align 8, !tbaa !96
  %19 = getelementptr inbounds nuw %"class.gmx::BasicVector", ptr %18, i32 0, i32 0
  %20 = getelementptr inbounds [3 x float], ptr %19, i64 0, i64 1
  %21 = load float, ptr %20, align 4, !tbaa !97
  %22 = fmul float %17, %21
  %23 = fneg float %22
  %24 = call float @llvm.fmuladd.f32(float %10, float %14, float %23)
  %25 = getelementptr inbounds nuw %"class.gmx::BasicVector", ptr %7, i32 0, i32 0
  %26 = getelementptr inbounds [3 x float], ptr %25, i64 0, i64 2
  %27 = load float, ptr %26, align 4, !tbaa !97
  %28 = load ptr, ptr %5, align 8, !tbaa !96
  %29 = getelementptr inbounds nuw %"class.gmx::BasicVector", ptr %28, i32 0, i32 0
  %30 = getelementptr inbounds [3 x float], ptr %29, i64 0, i64 0
  %31 = load float, ptr %30, align 4, !tbaa !97
  %32 = getelementptr inbounds nuw %"class.gmx::BasicVector", ptr %7, i32 0, i32 0
  %33 = getelementptr inbounds [3 x float], ptr %32, i64 0, i64 0
  %34 = load float, ptr %33, align 4, !tbaa !97
  %35 = load ptr, ptr %5, align 8, !tbaa !96
  %36 = getelementptr inbounds nuw %"class.gmx::BasicVector", ptr %35, i32 0, i32 0
  %37 = getelementptr inbounds [3 x float], ptr %36, i64 0, i64 2
  %38 = load float, ptr %37, align 4, !tbaa !97
  %39 = fmul float %34, %38
  %40 = fneg float %39
  %41 = call float @llvm.fmuladd.f32(float %27, float %31, float %40)
  %42 = getelementptr inbounds nuw %"class.gmx::BasicVector", ptr %7, i32 0, i32 0
  %43 = getelementptr inbounds [3 x float], ptr %42, i64 0, i64 0
  %44 = load float, ptr %43, align 4, !tbaa !97
  %45 = load ptr, ptr %5, align 8, !tbaa !96
  %46 = getelementptr inbounds nuw %"class.gmx::BasicVector", ptr %45, i32 0, i32 0
  %47 = getelementptr inbounds [3 x float], ptr %46, i64 0, i64 1
  %48 = load float, ptr %47, align 4, !tbaa !97
  %49 = getelementptr inbounds nuw %"class.gmx::BasicVector", ptr %7, i32 0, i32 0
  %50 = getelementptr inbounds [3 x float], ptr %49, i64 0, i64 1
  %51 = load float, ptr %50, align 4, !tbaa !97
  %52 = load ptr, ptr %5, align 8, !tbaa !96
  %53 = getelementptr inbounds nuw %"class.gmx::BasicVector", ptr %52, i32 0, i32 0
  %54 = getelementptr inbounds [3 x float], ptr %53, i64 0, i64 0
  %55 = load float, ptr %54, align 4, !tbaa !97
  %56 = fmul float %51, %55
  %57 = fneg float %56
  %58 = call float @llvm.fmuladd.f32(float %44, float %48, float %57)
  call void @_ZN3gmx11BasicVectorIfEC2Efff(ptr noundef nonnull align 4 dereferenceable(12) %3, float noundef %24, float noundef %41, float noundef %58)
  %59 = getelementptr inbounds nuw %"class.gmx::BasicVector", ptr %3, i32 0, i32 0
  call void @llvm.memcpy.p0.p0.i64(ptr align 8 %6, ptr align 4 %59, i64 12, i1 false)
  %60 = load { <2 x float>, float }, ptr %6, align 8
  ret { <2 x float>, float } %60
}

; Function Attrs: mustprogress nounwind uwtable
define linkonce_odr void @_ZN3gmx11BasicVectorIfEC2Efff(ptr noundef nonnull align 4 dereferenceable(12) %0, float noundef %1, float noundef %2, float noundef %3) unnamed_addr #2 comdat align 2 {
  %5 = alloca ptr, align 8
  %6 = alloca float, align 4
  %7 = alloca float, align 4
  %8 = alloca float, align 4
  store ptr %0, ptr %5, align 8, !tbaa !96
  store float %1, ptr %6, align 4, !tbaa !97
  store float %2, ptr %7, align 4, !tbaa !97
  store float %3, ptr %8, align 4, !tbaa !97
  %9 = load ptr, ptr %5, align 8
  %10 = getelementptr inbounds nuw %"class.gmx::BasicVector", ptr %9, i32 0, i32 0
  %11 = load float, ptr %6, align 4, !tbaa !97
  store float %11, ptr %10, align 4, !tbaa !97
  %12 = getelementptr inbounds float, ptr %10, i64 1
  %13 = load float, ptr %7, align 4, !tbaa !97
  store float %13, ptr %12, align 4, !tbaa !97
  %14 = getelementptr inbounds float, ptr %10, i64 2
  %15 = load float, ptr %8, align 4, !tbaa !97
  store float %15, ptr %14, align 4, !tbaa !97
  ret void
}

; Function Attrs: mustprogress uwtable
define { <2 x float>, float } @_ZN3gmx15computeQMBoxVecERKNS_11BasicVectorIfEES3_S3_fff(ptr noundef nonnull align 4 dereferenceable(12) %0, ptr noundef nonnull align 4 dereferenceable(12) %1, ptr noundef nonnull align 4 dereferenceable(12) %2, float noundef %3, float noundef %4, float noundef %5) #17 {
  %7 = alloca %"class.gmx::BasicVector", align 4
  %8 = alloca ptr, align 8
  %9 = alloca ptr, align 8
  %10 = alloca ptr, align 8
  %11 = alloca float, align 4
  %12 = alloca float, align 4
  %13 = alloca float, align 4
  %14 = alloca %"class.gmx::BasicVector", align 4
  %15 = alloca %"class.gmx::BasicVector", align 4
  %16 = alloca %"class.gmx::BasicVector", align 4
  %17 = alloca %"class.gmx::BasicVector", align 4
  %18 = alloca %"class.gmx::BasicVector", align 4
  %19 = alloca { <2 x float>, float }, align 8
  %20 = alloca float, align 4
  %21 = alloca %"class.gmx::BasicVector", align 4
  %22 = alloca float, align 4
  %23 = alloca { <2 x float>, float }, align 8
  %24 = alloca float, align 4
  %25 = alloca float, align 4
  %26 = alloca { <2 x float>, float }, align 8
  store ptr %0, ptr %8, align 8, !tbaa !96
  store ptr %1, ptr %9, align 8, !tbaa !96
  store ptr %2, ptr %10, align 8, !tbaa !96
  store float %3, ptr %11, align 4, !tbaa !97
  store float %4, ptr %12, align 4, !tbaa !97
  store float %5, ptr %13, align 4, !tbaa !97
  call void @llvm.lifetime.start.p0(i64 12, ptr %14) #4
  %27 = load ptr, ptr %8, align 8, !tbaa !96
  call void @llvm.memcpy.p0.p0.i64(ptr align 4 %14, ptr align 4 %27, i64 12, i1 false), !tbaa.struct !109
  call void @llvm.lifetime.start.p0(i64 12, ptr %15) #4
  %28 = load ptr, ptr %9, align 8, !tbaa !96
  call void @llvm.memcpy.p0.p0.i64(ptr align 4 %15, ptr align 4 %28, i64 12, i1 false), !tbaa.struct !109
  call void @llvm.lifetime.start.p0(i64 12, ptr %16) #4
  %29 = load ptr, ptr %10, align 8, !tbaa !96
  call void @llvm.memcpy.p0.p0.i64(ptr align 4 %16, ptr align 4 %29, i64 12, i1 false), !tbaa.struct !109
  call void @llvm.lifetime.start.p0(i64 12, ptr %17) #4
  call void @_ZN3gmx11BasicVectorIfEC2Efff(ptr noundef nonnull align 4 dereferenceable(12) %17, float noundef 0.000000e+00, float noundef 0.000000e+00, float noundef 0.000000e+00)
  call void @_ZN3gmx11BasicVectorIfEC2Efff(ptr noundef nonnull align 4 dereferenceable(12) %7, float noundef 0.000000e+00, float noundef 0.000000e+00, float noundef 0.000000e+00)
  call void @llvm.lifetime.start.p0(i64 12, ptr %18) #4
  %30 = call { <2 x float>, float } @_ZNK3gmx11BasicVectorIfE5crossERKS1_(ptr noundef nonnull align 4 dereferenceable(12) %15, ptr noundef nonnull align 4 dereferenceable(12) %16)
  %31 = getelementptr inbounds nuw %"class.gmx::BasicVector", ptr %18, i32 0, i32 0
  store { <2 x float>, float } %30, ptr %19, align 8
  call void @llvm.memcpy.p0.p0.i64(ptr align 4 %31, ptr align 8 %19, i64 12, i1 false)
  call void @llvm.memcpy.p0.p0.i64(ptr align 4 %17, ptr align 4 %18, i64 12, i1 false), !tbaa.struct !109
  call void @llvm.lifetime.end.p0(i64 12, ptr %18) #4
  call void @llvm.lifetime.start.p0(i64 4, ptr %20) #4
  %32 = call noundef float @_ZNK3gmx11BasicVectorIfE4normEv(ptr noundef nonnull align 4 dereferenceable(12) %17)
  store float %32, ptr %20, align 4, !tbaa !97
  %33 = call noundef nonnull align 4 dereferenceable(12) ptr @_ZN3gmx11BasicVectorIfEdVERKf(ptr noundef nonnull align 4 dereferenceable(12) %17, ptr noundef nonnull align 4 dereferenceable(4) %20)
  call void @llvm.lifetime.end.p0(i64 4, ptr %20) #4
  call void @llvm.lifetime.start.p0(i64 12, ptr %21) #4
  call void @llvm.lifetime.start.p0(i64 4, ptr %22) #4
  %34 = load float, ptr %11, align 4, !tbaa !97
  %35 = call noundef float @_ZNK3gmx11BasicVectorIfE3dotERKS1_(ptr noundef nonnull align 4 dereferenceable(12) %14, ptr noundef nonnull align 4 dereferenceable(12) %17)
  %36 = call noundef float @_ZSt4fabsf(float noundef %35)
  %37 = fdiv float %34, %36
  store float %37, ptr %22, align 4, !tbaa !97
  %38 = load ptr, ptr %8, align 8, !tbaa !96
  %39 = call { <2 x float>, float } @_ZN3gmxmlIfEENS_11BasicVectorIT_EERKS2_RKS3_(ptr noundef nonnull align 4 dereferenceable(4) %22, ptr noundef nonnull align 4 dereferenceable(12) %38)
  %40 = getelementptr inbounds nuw %"class.gmx::BasicVector", ptr %21, i32 0, i32 0
  store { <2 x float>, float } %39, ptr %23, align 8
  call void @llvm.memcpy.p0.p0.i64(ptr align 4 %40, ptr align 8 %23, i64 12, i1 false)
  call void @llvm.memcpy.p0.p0.i64(ptr align 4 %7, ptr align 4 %21, i64 12, i1 false), !tbaa.struct !109
  call void @llvm.lifetime.end.p0(i64 4, ptr %22) #4
  call void @llvm.lifetime.end.p0(i64 12, ptr %21) #4
  %41 = call noundef float @_ZNK3gmx11BasicVectorIfE4normEv(ptr noundef nonnull align 4 dereferenceable(12) %7)
  %42 = load float, ptr %12, align 4, !tbaa !97
  %43 = fcmp olt float %41, %42
  br i1 %43, label %44, label %49

44:                                               ; preds = %6
  call void @llvm.lifetime.start.p0(i64 4, ptr %24) #4
  %45 = load float, ptr %12, align 4, !tbaa !97
  %46 = call noundef float @_ZNK3gmx11BasicVectorIfE4normEv(ptr noundef nonnull align 4 dereferenceable(12) %7)
  %47 = fdiv float %45, %46
  store float %47, ptr %24, align 4, !tbaa !97
  %48 = call noundef nonnull align 4 dereferenceable(12) ptr @_ZN3gmx11BasicVectorIfEmLERKf(ptr noundef nonnull align 4 dereferenceable(12) %7, ptr noundef nonnull align 4 dereferenceable(4) %24)
  call void @llvm.lifetime.end.p0(i64 4, ptr %24) #4
  br label %49

49:                                               ; preds = %44, %6
  %50 = call noundef float @_ZNK3gmx11BasicVectorIfE4normEv(ptr noundef nonnull align 4 dereferenceable(12) %7)
  %51 = load float, ptr %13, align 4, !tbaa !97
  %52 = fcmp ogt float %50, %51
  br i1 %52, label %53, label %58

53:                                               ; preds = %49
  call void @llvm.lifetime.start.p0(i64 4, ptr %25) #4
  %54 = load float, ptr %13, align 4, !tbaa !97
  %55 = call noundef float @_ZNK3gmx11BasicVectorIfE4normEv(ptr noundef nonnull align 4 dereferenceable(12) %7)
  %56 = fdiv float %54, %55
  store float %56, ptr %25, align 4, !tbaa !97
  %57 = call noundef nonnull align 4 dereferenceable(12) ptr @_ZN3gmx11BasicVectorIfEmLERKf(ptr noundef nonnull align 4 dereferenceable(12) %7, ptr noundef nonnull align 4 dereferenceable(4) %25)
  call void @llvm.lifetime.end.p0(i64 4, ptr %25) #4
  br label %58

58:                                               ; preds = %53, %49
  call void @llvm.lifetime.end.p0(i64 12, ptr %17) #4
  call void @llvm.lifetime.end.p0(i64 12, ptr %16) #4
  call void @llvm.lifetime.end.p0(i64 12, ptr %15) #4
  call void @llvm.lifetime.end.p0(i64 12, ptr %14) #4
  %59 = getelementptr inbounds nuw %"class.gmx::BasicVector", ptr %7, i32 0, i32 0
  call void @llvm.memcpy.p0.p0.i64(ptr align 8 %26, ptr align 4 %59, i64 12, i1 false)
  %60 = load { <2 x float>, float }, ptr %26, align 8
  ret { <2 x float>, float } %60
}