; Function Attrs: mustprogress nofree norecurse nosync nounwind willreturn memory(argmem: read) uwtable
define { <2 x float>, float } @_ZN3gmx15computeQMBoxVecERKNS_11BasicVectorIfEES3_S3_fff(ptr noundef nonnull readonly align 4 captures(none) dereferenceable(12) %0, ptr noundef nonnull readonly align 4 captures(none) dereferenceable(12) %1, ptr noundef nonnull readonly align 4 captures(none) dereferenceable(12) %2, float noundef %3, float noundef %4, float noundef %5) local_unnamed_addr #18 {
  %.sroa.055.0.copyload = load float, ptr %0, align 4
  %.sroa.456.0..sroa_idx = getelementptr inbounds nuw i8, ptr %0, i64 4
  %.sroa.456.0.copyload = load float, ptr %.sroa.456.0..sroa_idx, align 4
  %.sroa.557.0..sroa_idx = getelementptr inbounds nuw i8, ptr %0, i64 8
  %.sroa.557.0.copyload = load float, ptr %.sroa.557.0..sroa_idx, align 4, !tbaa !17
  %.sroa.052.0.copyload = load float, ptr %1, align 4
  %.sroa.453.0..sroa_idx = getelementptr inbounds nuw i8, ptr %1, i64 4
  %.sroa.453.0.copyload = load float, ptr %.sroa.453.0..sroa_idx, align 4
  %.sroa.554.0..sroa_idx = getelementptr inbounds nuw i8, ptr %1, i64 8
  %.sroa.554.0.copyload = load float, ptr %.sroa.554.0..sroa_idx, align 4, !tbaa !17
  %.sroa.050.0.copyload = load float, ptr %2, align 4
  %.sroa.4.0..sroa_idx51 = getelementptr inbounds nuw i8, ptr %2, i64 4
  %.sroa.4.0.copyload = load float, ptr %.sroa.4.0..sroa_idx51, align 4
  %.sroa.5.0..sroa_idx = getelementptr inbounds nuw i8, ptr %2, i64 8
  %.sroa.5.0.copyload = load float, ptr %.sroa.5.0..sroa_idx, align 4, !tbaa !17
  %7 = fneg float %.sroa.4.0.copyload
  %8 = fmul float %.sroa.554.0.copyload, %7
  %9 = tail call float @llvm.fmuladd.f32(float %.sroa.453.0.copyload, float %.sroa.5.0.copyload, float %8)
  %10 = fneg float %.sroa.5.0.copyload
  %11 = fmul float %.sroa.052.0.copyload, %10
  %12 = tail call float @llvm.fmuladd.f32(float %.sroa.554.0.copyload, float %.sroa.050.0.copyload, float %11)
  %13 = fneg float %.sroa.050.0.copyload
  %14 = fmul float %.sroa.453.0.copyload, %13
  %15 = tail call float @llvm.fmuladd.f32(float %.sroa.052.0.copyload, float %.sroa.4.0.copyload, float %14)
  %16 = fmul float %12, %12
  %17 = tail call float @llvm.fmuladd.f32(float %9, float %9, float %16)
  %18 = tail call noundef float @llvm.fmuladd.f32(float %15, float %15, float %17)
  %sqrt.i = tail call noundef float @llvm.sqrt.f32(float %18)
  %19 = fdiv float 1.000000e+00, %sqrt.i
  %20 = fmul float %9, %19
  %21 = fmul float %12, %19
  %22 = fmul float %15, %19
  %23 = fmul float %.sroa.456.0.copyload, %21
  %24 = tail call float @llvm.fmuladd.f32(float %.sroa.055.0.copyload, float %20, float %23)
  %25 = tail call noundef float @llvm.fmuladd.f32(float %.sroa.557.0.copyload, float %22, float %24)
  %26 = tail call noundef float @llvm.fabs.f32(float %25)
  %27 = fdiv float %3, %26
  %28 = fmul float %.sroa.055.0.copyload, %27
  %29 = fmul float %.sroa.456.0.copyload, %27
  %30 = fmul float %.sroa.557.0.copyload, %27
  %.sroa.0.0.vec.insert.i19 = insertelement <2 x float> poison, float %28, i64 0
  %.sroa.0.4.vec.insert.i20 = insertelement <2 x float> %.sroa.0.0.vec.insert.i19, float %29, i64 1
  %31 = fmul float %29, %29
  %32 = tail call float @llvm.fmuladd.f32(float %28, float %28, float %31)
  %33 = tail call noundef float @llvm.fmuladd.f32(float %30, float %30, float %32)
  %sqrt.i23 = tail call noundef float @llvm.sqrt.f32(float %33)
  %34 = fcmp olt float %sqrt.i23, %4
  br i1 %34, label %35, label %40

35:                                               ; preds = %6
  %36 = fdiv float %4, %sqrt.i23
  %37 = fmul float %28, %36
  %.sroa.058.0.vec.insert66 = insertelement <2 x float> poison, float %37, i64 0
  %38 = fmul float %29, %36
  %.sroa.058.4.vec.insert81 = insertelement <2 x float> %.sroa.058.0.vec.insert66, float %38, i64 1
  %39 = fmul float %30, %36
  br label %40

40:                                               ; preds = %35, %6
  %.sroa.058.0 = phi <2 x float> [ %.sroa.058.4.vec.insert81, %35 ], [ %.sroa.0.4.vec.insert.i20, %6 ]
  %.sroa.20.0 = phi float [ %39, %35 ], [ %30, %6 ]
  %.sroa.058.0.vec.extract68 = extractelement <2 x float> %.sroa.058.0, i64 0
  %.sroa.058.4.vec.extract83 = extractelement <2 x float> %.sroa.058.0, i64 1
  %41 = fmul float %.sroa.058.4.vec.extract83, %.sroa.058.4.vec.extract83
  %42 = tail call float @llvm.fmuladd.f32(float %.sroa.058.0.vec.extract68, float %.sroa.058.0.vec.extract68, float %41)
  %43 = tail call noundef float @llvm.fmuladd.f32(float %.sroa.20.0, float %.sroa.20.0, float %42)
  %sqrt.i25 = tail call noundef float @llvm.sqrt.f32(float %43)
  %44 = fcmp ogt float %sqrt.i25, %5
  br i1 %44, label %45, label %50

45:                                               ; preds = %40
  %46 = fdiv float %5, %sqrt.i25
  %47 = fmul float %.sroa.058.0.vec.extract68, %46
  %.sroa.058.0.vec.insert74 = insertelement <2 x float> poison, float %47, i64 0
  %48 = fmul float %.sroa.058.4.vec.extract83, %46
  %.sroa.058.4.vec.insert89 = insertelement <2 x float> %.sroa.058.0.vec.insert74, float %48, i64 1
  %49 = fmul float %.sroa.20.0, %46
  br label %50

50:                                               ; preds = %45, %40
  %.sroa.058.1 = phi <2 x float> [ %.sroa.058.4.vec.insert89, %45 ], [ %.sroa.058.0, %40 ]
  %.sroa.20.1 = phi float [ %49, %45 ], [ %.sroa.20.0, %40 ]
  %.fca.0.insert = insertvalue { <2 x float>, float } poison, <2 x float> %.sroa.058.1, 0
  %.fca.1.insert = insertvalue { <2 x float>, float } %.fca.0.insert, float %.sroa.20.1, 1
  ret { <2 x float>, float } %.fca.1.insert
}